target datalayout = "e-m:e-p270:32:32-p271:32:32-p272:64:64-i64:64-i128:128-f80:128-n8:16:32:64-S128"
target triple = "x86_64-pc-linux-gnu"

%struct.lua_TValue = type { %union.Value, i32 }
%union.Value = type { ptr }
%struct.lua_State = type { ptr, i8, i8, i8, ptr, ptr, ptr, ptr, ptr, ptr, ptr, ptr, ptr, i32, i32, i16, i16, i8, i8, i32, i32, ptr, %struct.lua_TValue, %struct.lua_TValue, ptr, ptr, ptr, i64 }
%struct.global_State = type { %struct.stringtable, ptr, ptr, i8, i8, i32, ptr, ptr, ptr, ptr, ptr, ptr, %struct.Mbuffer, i64, i64, i64, i64, i32, i32, ptr, %struct.lua_TValue, ptr, %struct.UpVal, [9 x ptr], [17 x ptr] }
%struct.stringtable = type { ptr, i32, i32 }
%struct.Mbuffer = type { ptr, i64, i64 }
%struct.UpVal = type { ptr, i8, i8, ptr, %union.anon }
%union.anon = type { %struct.lua_TValue }

@.str.4 = private unnamed_addr constant [1 x i8] zeroinitializer, align 1

; Function Attrs: nounwind uwtable
define dso_local void @lua_concat(ptr noundef %0, i32 noundef %1) #0 {
  %3 = alloca ptr, align 8
  %4 = alloca i32, align 4
  %5 = alloca ptr, align 8
  store ptr %0, ptr %3, align 8, !tbaa !4
  store i32 %1, ptr %4, align 4, !tbaa !25
  %6 = load i32, ptr %4, align 4, !tbaa !25
  %7 = icmp sge i32 %6, 2
  br i1 %7, label %8, label %45

8:                                                ; preds = %2
  %9 = load ptr, ptr %3, align 8, !tbaa !4
  %10 = getelementptr inbounds nuw %struct.lua_State, ptr %9, i32 0, i32 6
  %11 = load ptr, ptr %10, align 8, !tbaa !35
  %12 = getelementptr inbounds nuw %struct.global_State, ptr %11, i32 0, i32 14
  %13 = load i64, ptr %12, align 8, !tbaa !43
  %14 = load ptr, ptr %3, align 8, !tbaa !4
  %15 = getelementptr inbounds nuw %struct.lua_State, ptr %14, i32 0, i32 6
  %16 = load ptr, ptr %15, align 8, !tbaa !35
  %17 = getelementptr inbounds nuw %struct.global_State, ptr %16, i32 0, i32 13
  %18 = load i64, ptr %17, align 8, !tbaa !44
  %19 = icmp uge i64 %13, %18
  br i1 %19, label %20, label %22

20:                                               ; preds = %8
  %21 = load ptr, ptr %3, align 8, !tbaa !4
  call void @luaC_step(ptr noundef %21)
  br label %22

22:                                               ; preds = %20, %8
  %23 = load ptr, ptr %3, align 8, !tbaa !4
  %24 = load i32, ptr %4, align 4, !tbaa !25
  %25 = load ptr, ptr %3, align 8, !tbaa !4
  %26 = getelementptr inbounds nuw %struct.lua_State, ptr %25, i32 0, i32 4
  %27 = load ptr, ptr %26, align 8, !tbaa !11
  %28 = load ptr, ptr %3, align 8, !tbaa !4
  %29 = getelementptr inbounds nuw %struct.lua_State, ptr %28, i32 0, i32 5
  %30 = load ptr, ptr %29, align 8, !tbaa !26
  %31 = ptrtoint ptr %27 to i64
  %32 = ptrtoint ptr %30 to i64
  %33 = sub i64 %31, %32
  %34 = sdiv exact i64 %33, 16
  %35 = trunc i64 %34 to i32
  %36 = sub nsw i32 %35, 1
  call void @luaV_concat(ptr noundef %23, i32 noundef %24, i32 noundef %36)
  %37 = load i32, ptr %4, align 4, !tbaa !25
  %38 = sub nsw i32 %37, 1
  %39 = load ptr, ptr %3, align 8, !tbaa !4
  %40 = getelementptr inbounds nuw %struct.lua_State, ptr %39, i32 0, i32 4
  %41 = load ptr, ptr %40, align 8, !tbaa !11
  %42 = sext i32 %38 to i64
  %43 = sub i64 0, %42
  %44 = getelementptr inbounds %struct.lua_TValue, ptr %41, i64 %43
  store ptr %44, ptr %40, align 8, !tbaa !11
  br label %63

45:                                               ; preds = %2
  %46 = load i32, ptr %4, align 4, !tbaa !25
  %47 = icmp eq i32 %46, 0
  br i1 %47, label %48, label %62

48:                                               ; preds = %45
  call void @llvm.lifetime.start.p0(i64 8, ptr %5) #6
  %49 = load ptr, ptr %3, align 8, !tbaa !4
  %50 = getelementptr inbounds nuw %struct.lua_State, ptr %49, i32 0, i32 4
  %51 = load ptr, ptr %50, align 8, !tbaa !11
  store ptr %51, ptr %5, align 8, !tbaa !9
  %52 = load ptr, ptr %3, align 8, !tbaa !4
  %53 = call ptr @luaS_newlstr(ptr noundef %52, ptr noundef @.str.4, i64 noundef 0)
  %54 = load ptr, ptr %5, align 8, !tbaa !9
  %55 = getelementptr inbounds nuw %struct.lua_TValue, ptr %54, i32 0, i32 0
  store ptr %53, ptr %55, align 8, !tbaa !23
  %56 = load ptr, ptr %5, align 8, !tbaa !9
  %57 = getelementptr inbounds nuw %struct.lua_TValue, ptr %56, i32 0, i32 1
  store i32 4, ptr %57, align 8, !tbaa !24
  call void @llvm.lifetime.end.p0(i64 8, ptr %5) #6
  %58 = load ptr, ptr %3, align 8, !tbaa !4
  %59 = getelementptr inbounds nuw %struct.lua_State, ptr %58, i32 0, i32 4
  %60 = load ptr, ptr %59, align 8, !tbaa !11
  %61 = getelementptr inbounds nuw %struct.lua_TValue, ptr %60, i32 1
  store ptr %61, ptr %59, align 8, !tbaa !11
  br label %62

62:                                               ; preds = %48, %45
  br label %63

63:                                               ; preds = %62, %22
  ret void
}