; Function Attrs: nounwind uwtable
define dso_local void @lua_concat(ptr noundef %0, i32 noundef %1) local_unnamed_addr #2 {
  %3 = icmp sgt i32 %1, 1
  br i1 %3, label %4, label %28

4:                                                ; preds = %2
  %5 = getelementptr inbounds nuw i8, ptr %0, i64 32
  %6 = load ptr, ptr %5, align 8, !tbaa !29
  %7 = getelementptr inbounds nuw i8, ptr %6, i64 120
  %8 = load i64, ptr %7, align 8, !tbaa !38
  %9 = getelementptr inbounds nuw i8, ptr %6, i64 112
  %10 = load i64, ptr %9, align 8, !tbaa !39
  %.not = icmp ult i64 %8, %10
  br i1 %.not, label %12, label %11

11:                                               ; preds = %4
  tail call void @luaC_step(ptr noundef nonnull %0) #14
  br label %12

12:                                               ; preds = %11, %4
  %13 = getelementptr inbounds nuw i8, ptr %0, i64 16
  %14 = load ptr, ptr %13, align 8, !tbaa !4
  %15 = getelementptr inbounds nuw i8, ptr %0, i64 24
  %16 = load ptr, ptr %15, align 8, !tbaa !21
  %17 = ptrtoint ptr %14 to i64
  %18 = ptrtoint ptr %16 to i64
  %19 = sub i64 %17, %18
  %20 = lshr exact i64 %19, 4
  %21 = trunc i64 %20 to i32
  %22 = add nsw i32 %21, -1
  tail call void @luaV_concat(ptr noundef nonnull %0, i32 noundef %1, i32 noundef %22) #14
  %23 = add nsw i32 %1, -1
  %24 = load ptr, ptr %13, align 8, !tbaa !4
  %25 = zext nneg i32 %23 to i64
  %26 = sub nsw i64 0, %25
  %27 = getelementptr inbounds %struct.lua_TValue, ptr %24, i64 %26
  store ptr %27, ptr %13, align 8, !tbaa !4
  br label %37

28:                                               ; preds = %2
  %29 = icmp eq i32 %1, 0
  br i1 %29, label %30, label %37

30:                                               ; preds = %28
  %31 = getelementptr inbounds nuw i8, ptr %0, i64 16
  %32 = load ptr, ptr %31, align 8, !tbaa !4
  %33 = tail call ptr @luaS_newlstr(ptr noundef %0, ptr noundef nonnull @.str.4, i64 noundef 0) #14
  store ptr %33, ptr %32, align 8, !tbaa !19
  %34 = getelementptr inbounds nuw i8, ptr %32, i64 8
  store i32 4, ptr %34, align 8, !tbaa !20
  %35 = load ptr, ptr %31, align 8, !tbaa !4
  %36 = getelementptr inbounds nuw i8, ptr %35, i64 16
  store ptr %36, ptr %31, align 8, !tbaa !4
  br label %37

37:                                               ; preds = %28, %30, %12
  ret void
}